target datalayout = "e-m:e-p270:32:32-p271:32:32-p272:64:64-i64:64-i128:128-f80:128-n8:16:32:64-S128"
target triple = "x86_64-pc-linux-gnu"

%struct.DR_transientrel = type { %struct._DestReceiver, i32, ptr, i32, i32, ptr }
%struct._DestReceiver = type { ptr, ptr, ptr, ptr, i32 }

; Function Attrs: nounwind uwtable
define internal void @transientrel_startup(ptr noundef %0, i32 noundef %1, ptr noundef %2) #0 {
  %4 = alloca ptr, align 8
  %5 = alloca i32, align 4
  %6 = alloca ptr, align 8
  %7 = alloca ptr, align 8
  %8 = alloca ptr, align 8
  store ptr %0, ptr %4, align 8
  store i32 %1, ptr %5, align 4
  store ptr %2, ptr %6, align 8
  call void @llvm.lifetime.start.p0(i64 8, ptr %7) #10
  %9 = load ptr, ptr %4, align 8
  store ptr %9, ptr %7, align 8
  call void @llvm.lifetime.start.p0(i64 8, ptr %8) #10
  %10 = load ptr, ptr %7, align 8
  %11 = getelementptr inbounds nuw %struct.DR_transientrel, ptr %10, i32 0, i32 1
  %12 = load i32, ptr %11, align 8
  %13 = call ptr @table_open(i32 noundef %12, i32 noundef 0)
  store ptr %13, ptr %8, align 8
  %14 = load ptr, ptr %8, align 8
  %15 = load ptr, ptr %7, align 8
  %16 = getelementptr inbounds nuw %struct.DR_transientrel, ptr %15, i32 0, i32 2
  store ptr %14, ptr %16, align 8
  %17 = call i32 @GetCurrentCommandId(i1 noundef zeroext true)
  %18 = load ptr, ptr %7, align 8
  %19 = getelementptr inbounds nuw %struct.DR_transientrel, ptr %18, i32 0, i32 3
  store i32 %17, ptr %19, align 8
  %20 = load ptr, ptr %7, align 8
  %21 = getelementptr inbounds nuw %struct.DR_transientrel, ptr %20, i32 0, i32 4
  store i32 6, ptr %21, align 4
  %22 = call ptr @GetBulkInsertState()
  %23 = load ptr, ptr %7, align 8
  %24 = getelementptr inbounds nuw %struct.DR_transientrel, ptr %23, i32 0, i32 5
  store ptr %22, ptr %24, align 8
  call void @llvm.lifetime.end.p0(i64 8, ptr %8) #10
  call void @llvm.lifetime.end.p0(i64 8, ptr %7) #10
  ret void
}