; Function Attrs: nounwind uwtable
define internal void @transientrel_startup(ptr noundef captures(none) initializes((48, 72)) %0, i32 %1, ptr readnone captures(none) %2) #0 {
  %4 = getelementptr inbounds nuw i8, ptr %0, i64 40
  %5 = load i32, ptr %4, align 8
  %6 = tail call ptr @table_open(i32 noundef %5, i32 noundef 0) #8
  %7 = getelementptr inbounds nuw i8, ptr %0, i64 48
  store ptr %6, ptr %7, align 8
  %8 = tail call i32 @GetCurrentCommandId(i1 noundef zeroext true) #8
  %9 = getelementptr inbounds nuw i8, ptr %0, i64 56
  store i32 %8, ptr %9, align 8
  %10 = getelementptr inbounds nuw i8, ptr %0, i64 60
  store i32 6, ptr %10, align 4
  %11 = tail call ptr @GetBulkInsertState() #8
  %12 = getelementptr inbounds nuw i8, ptr %0, i64 64
  store ptr %11, ptr %12, align 8
  ret void
}